target datalayout = "e-m:e-p270:32:32-p271:32:32-p272:64:64-i64:64-i128:128-f80:128-n8:16:32:64-S128"
target triple = "x86_64-pc-linux-gnu"

%struct.zsetopval = type { i32, [32 x i8], ptr, ptr, i32, i64, double }

; Function Attrs: nounwind uwtable
define dso_local ptr @zuiSdsFromValue(ptr noundef %0) #0 {
  %2 = alloca ptr, align 8
  store ptr %0, ptr %2, align 8, !tbaa !45
  %3 = load ptr, ptr %2, align 8, !tbaa !45
  %4 = getelementptr inbounds nuw %struct.zsetopval, ptr %3, i32 0, i32 2
  %5 = load ptr, ptr %4, align 8, !tbaa !181
  %6 = icmp eq ptr %5, null
  br i1 %6, label %7, label %35

7:                                                ; preds = %1
  %8 = load ptr, ptr %2, align 8, !tbaa !45
  %9 = getelementptr inbounds nuw %struct.zsetopval, ptr %8, i32 0, i32 3
  %10 = load ptr, ptr %9, align 8, !tbaa !184
  %11 = icmp ne ptr %10, null
  br i1 %11, label %12, label %23

12:                                               ; preds = %7
  %13 = load ptr, ptr %2, align 8, !tbaa !45
  %14 = getelementptr inbounds nuw %struct.zsetopval, ptr %13, i32 0, i32 3
  %15 = load ptr, ptr %14, align 8, !tbaa !184
  %16 = load ptr, ptr %2, align 8, !tbaa !45
  %17 = getelementptr inbounds nuw %struct.zsetopval, ptr %16, i32 0, i32 4
  %18 = load i32, ptr %17, align 8, !tbaa !185
  %19 = zext i32 %18 to i64
  %20 = call ptr @sdsnewlen(ptr noundef %15, i64 noundef %19)
  %21 = load ptr, ptr %2, align 8, !tbaa !45
  %22 = getelementptr inbounds nuw %struct.zsetopval, ptr %21, i32 0, i32 2
  store ptr %20, ptr %22, align 8, !tbaa !181
  br label %30

23:                                               ; preds = %7
  %24 = load ptr, ptr %2, align 8, !tbaa !45
  %25 = getelementptr inbounds nuw %struct.zsetopval, ptr %24, i32 0, i32 5
  %26 = load i64, ptr %25, align 8, !tbaa !182
  %27 = call ptr @sdsfromlonglong(i64 noundef %26)
  %28 = load ptr, ptr %2, align 8, !tbaa !45
  %29 = getelementptr inbounds nuw %struct.zsetopval, ptr %28, i32 0, i32 2
  store ptr %27, ptr %29, align 8, !tbaa !181
  br label %30

30:                                               ; preds = %23, %12
  %31 = load ptr, ptr %2, align 8, !tbaa !45
  %32 = getelementptr inbounds nuw %struct.zsetopval, ptr %31, i32 0, i32 0
  %33 = load i32, ptr %32, align 8, !tbaa !179
  %34 = or i32 %33, 1
  store i32 %34, ptr %32, align 8, !tbaa !179
  br label %35

35:                                               ; preds = %30, %1
  %36 = load ptr, ptr %2, align 8, !tbaa !45
  %37 = getelementptr inbounds nuw %struct.zsetopval, ptr %36, i32 0, i32 2
  %38 = load ptr, ptr %37, align 8, !tbaa !181
  ret ptr %38
}