; Function Attrs: nounwind uwtable
define dso_local ptr @zuiSdsFromValue(ptr noundef captures(none) %0) local_unnamed_addr #0 {
  %2 = getelementptr inbounds nuw i8, ptr %0, i64 40
  %3 = load ptr, ptr %2, align 8, !tbaa !163
  %4 = icmp eq ptr %3, null
  br i1 %4, label %5, label %20

5:                                                ; preds = %1
  %6 = getelementptr inbounds nuw i8, ptr %0, i64 48
  %7 = load ptr, ptr %6, align 8, !tbaa !166
  %.not = icmp eq ptr %7, null
  br i1 %.not, label %13, label %8

8:                                                ; preds = %5
  %9 = getelementptr inbounds nuw i8, ptr %0, i64 56
  %10 = load i32, ptr %9, align 8, !tbaa !167
  %11 = zext i32 %10 to i64
  %12 = tail call ptr @sdsnewlen(ptr noundef nonnull %7, i64 noundef %11) #18
  br label %17

13:                                               ; preds = %5
  %14 = getelementptr inbounds nuw i8, ptr %0, i64 64
  %15 = load i64, ptr %14, align 8, !tbaa !164
  %16 = tail call ptr @sdsfromlonglong(i64 noundef %15) #18
  br label %17

17:                                               ; preds = %13, %8
  %storemerge = phi ptr [ %16, %13 ], [ %12, %8 ]
  store ptr %storemerge, ptr %2, align 8, !tbaa !163
  %18 = load i32, ptr %0, align 8, !tbaa !161
  %19 = or i32 %18, 1
  store i32 %19, ptr %0, align 8, !tbaa !161
  br label %20

20:                                               ; preds = %17, %1
  %21 = phi ptr [ %storemerge, %17 ], [ %3, %1 ]
  ret ptr %21
}